; Function Attrs: nounwind uwtable
define internal i32 @get_dh_dsa_payload_p(i32 noundef %0, ptr noundef captures(address_is_null) %1, ptr noundef %2) #0 {
  %4 = getelementptr inbounds nuw i8, ptr %2, i64 32
  %5 = load ptr, ptr %4, align 8, !tbaa !35
  %6 = tail call i32 @EVP_PKEY_get_base_id(ptr noundef %5) #8
  switch i32 %6, label %.thread [
    i32 28, label %7
    i32 116, label %10
  ]

7:                                                ; preds = %3
  %8 = tail call ptr @EVP_PKEY_get0_DH(ptr noundef %5) #8
  %9 = tail call ptr @DH_get0_p(ptr noundef %8) #8
  br label %13

10:                                               ; preds = %3
  %11 = tail call ptr @EVP_PKEY_get0_DSA(ptr noundef %5) #8
  %12 = tail call ptr @DSA_get0_p(ptr noundef %11) #8
  br label %13

.thread:                                          ; preds = %3
  tail call void @ERR_new() #8
  tail call void @ERR_set_debug(ptr noundef nonnull @.str, i32 noundef 1755, ptr noundef nonnull @__func__.get_dh_dsa_payload_p) #8
  tail call void (i32, i32, ptr, ...) @ERR_set_error(i32 noundef 6, i32 noundef 224, ptr noundef null) #8
  br label %get_payload_bn.exit

13:                                               ; preds = %10, %7
  %.0 = phi ptr [ %12, %10 ], [ %9, %7 ]
  %14 = icmp eq ptr %.0, null
  br i1 %14, label %get_payload_bn.exit, label %15

15:                                               ; preds = %13
  %16 = getelementptr inbounds nuw i8, ptr %2, i64 48
  %17 = load ptr, ptr %16, align 8, !tbaa !37
  %18 = getelementptr inbounds nuw i8, ptr %17, i64 8
  %19 = load i32, ptr %18, align 8, !tbaa !57
  %.not.i = icmp eq i32 %19, 2
  br i1 %.not.i, label %20, label %get_payload_bn.exit

20:                                               ; preds = %15
  store ptr %.0, ptr %4, align 8, !tbaa !35
  %21 = tail call i32 @default_fixup_args(i32 noundef %0, ptr noundef %1, ptr noundef nonnull %2)
  br label %get_payload_bn.exit

get_payload_bn.exit:                              ; preds = %.thread, %13, %15, %20
  %.0.i = phi i32 [ %21, %20 ], [ 0, %13 ], [ 0, %15 ], [ 0, %.thread ]
  ret i32 %.0.i
}